; Function Attrs: nofree norecurse nosync nounwind memory(read, argmem: readwrite, inaccessiblemem: none) uwtable
define range(i32 0, 7) i32 @FT_Stroker_GetCounts(ptr noundef %0, ptr noundef writeonly %1, ptr noundef writeonly %2) local_unnamed_addr #5 {
  %.not = icmp eq ptr %0, null
  br i1 %.not, label %33, label %4

4:                                                ; preds = %3
  %5 = getelementptr inbounds nuw i8, ptr %0, i64 112
  %6 = load i32, ptr %5, align 8
  %.not35.i = icmp eq i32 %6, 0
  br i1 %.not35.i, label %._crit_edge.thread.i, label %.lr.ph.preheader.i

.lr.ph.preheader.i:                               ; preds = %4
  %7 = getelementptr inbounds nuw i8, ptr %0, i64 128
  %8 = load ptr, ptr %7, align 8
  br label %.lr.ph.i

.lr.ph.i:                                         ; preds = %12, %.lr.ph.preheader.i
  %.040.i = phi i1 [ %.not30.not.i, %12 ], [ true, %.lr.ph.preheader.i ]
  %.01939.i = phi ptr [ %16, %12 ], [ %8, %.lr.ph.preheader.i ]
  %.02138.i = phi i32 [ %15, %12 ], [ %6, %.lr.ph.preheader.i ]
  %.02237.i = phi i32 [ %spec.select.i, %12 ], [ 0, %.lr.ph.preheader.i ]
  %9 = load i8, ptr %.01939.i, align 1
  %10 = and i8 %9, 4
  %.not28.i = icmp eq i8 %10, 0
  %11 = xor i1 %.040.i, %.not28.i
  br i1 %11, label %12, label %ft_stroke_border_get_counts.exit

12:                                               ; preds = %.lr.ph.i
  %13 = and i8 %9, 8
  %.not30.not.i = icmp ne i8 %13, 0
  %.lobit.i = lshr exact i8 %13, 3
  %14 = zext nneg i8 %.lobit.i to i32
  %spec.select.i = add i32 %.02237.i, %14
  %15 = add i32 %.02138.i, -1
  %16 = getelementptr inbounds nuw i8, ptr %.01939.i, i64 1
  %.not.i = icmp eq i32 %15, 0
  br i1 %.not.i, label %._crit_edge.i, label %.lr.ph.i, !llvm.loop !14

._crit_edge.i:                                    ; preds = %12
  br i1 %.not30.not.i, label %._crit_edge.thread.i, label %ft_stroke_border_get_counts.exit

._crit_edge.thread.i:                             ; preds = %._crit_edge.i, %4
  %.022.lcssa47.i = phi i32 [ %spec.select.i, %._crit_edge.i ], [ 0, %4 ]
  %17 = getelementptr inbounds nuw i8, ptr %0, i64 152
  store i8 1, ptr %17, align 8
  br label %ft_stroke_border_get_counts.exit

ft_stroke_border_get_counts.exit:                 ; preds = %.lr.ph.i, %._crit_edge.i, %._crit_edge.thread.i
  %.126.i = phi i32 [ %6, %._crit_edge.thread.i ], [ 0, %._crit_edge.i ], [ 0, %.lr.ph.i ]
  %.224.i = phi i32 [ %.022.lcssa47.i, %._crit_edge.thread.i ], [ 0, %._crit_edge.i ], [ 0, %.lr.ph.i ]
  %18 = getelementptr inbounds nuw i8, ptr %0, i64 160
  %19 = load i32, ptr %18, align 8
  %.not35.i20 = icmp eq i32 %19, 0
  br i1 %.not35.i20, label %._crit_edge.thread.i35, label %.lr.ph.preheader.i21

.lr.ph.preheader.i21:                             ; preds = %ft_stroke_border_get_counts.exit
  %20 = getelementptr inbounds nuw i8, ptr %0, i64 176
  %21 = load ptr, ptr %20, align 8
  br label %.lr.ph.i22

.lr.ph.i22:                                       ; preds = %25, %.lr.ph.preheader.i21
  %.040.i23 = phi i1 [ %.not30.not.i30, %25 ], [ true, %.lr.ph.preheader.i21 ]
  %.01939.i24 = phi ptr [ %29, %25 ], [ %21, %.lr.ph.preheader.i21 ]
  %.02138.i25 = phi i32 [ %28, %25 ], [ %19, %.lr.ph.preheader.i21 ]
  %.02237.i26 = phi i32 [ %spec.select.i32, %25 ], [ 0, %.lr.ph.preheader.i21 ]
  %22 = load i8, ptr %.01939.i24, align 1
  %23 = and i8 %22, 4
  %.not28.i27 = icmp eq i8 %23, 0
  %24 = xor i1 %.040.i23, %.not28.i27
  br i1 %24, label %25, label %ft_stroke_border_get_counts.exit38

25:                                               ; preds = %.lr.ph.i22
  %26 = and i8 %22, 8
  %.not30.not.i30 = icmp ne i8 %26, 0
  %.lobit.i31 = lshr exact i8 %26, 3
  %27 = zext nneg i8 %.lobit.i31 to i32
  %spec.select.i32 = add i32 %.02237.i26, %27
  %28 = add i32 %.02138.i25, -1
  %29 = getelementptr inbounds nuw i8, ptr %.01939.i24, i64 1
  %.not.i33 = icmp eq i32 %28, 0
  br i1 %.not.i33, label %._crit_edge.i34, label %.lr.ph.i22, !llvm.loop !14

._crit_edge.i34:                                  ; preds = %25
  br i1 %.not30.not.i30, label %._crit_edge.thread.i35, label %ft_stroke_border_get_counts.exit38

._crit_edge.thread.i35:                           ; preds = %._crit_edge.i34, %ft_stroke_border_get_counts.exit
  %.022.lcssa47.i36 = phi i32 [ %spec.select.i32, %._crit_edge.i34 ], [ 0, %ft_stroke_border_get_counts.exit ]
  %30 = getelementptr inbounds nuw i8, ptr %0, i64 200
  store i8 1, ptr %30, align 8
  br label %ft_stroke_border_get_counts.exit38

ft_stroke_border_get_counts.exit38:               ; preds = %.lr.ph.i22, %._crit_edge.i34, %._crit_edge.thread.i35
  %.126.i28 = phi i32 [ %19, %._crit_edge.thread.i35 ], [ 0, %._crit_edge.i34 ], [ 0, %.lr.ph.i22 ]
  %.224.i29 = phi i32 [ %.022.lcssa47.i36, %._crit_edge.thread.i35 ], [ 0, %._crit_edge.i34 ], [ 0, %.lr.ph.i22 ]
  %31 = add i32 %.126.i28, %.126.i
  %32 = add i32 %.224.i29, %.224.i
  br label %33

33:                                               ; preds = %3, %ft_stroke_border_get_counts.exit38
  %.012 = phi i32 [ %31, %ft_stroke_border_get_counts.exit38 ], [ 0, %3 ]
  %.011 = phi i32 [ %32, %ft_stroke_border_get_counts.exit38 ], [ 0, %3 ]
  %.0 = phi i32 [ 0, %ft_stroke_border_get_counts.exit38 ], [ 6, %3 ]
  %.not18 = icmp eq ptr %1, null
  br i1 %.not18, label %35, label %34

34:                                               ; preds = %33
  store i32 %.012, ptr %1, align 4
  br label %35

35:                                               ; preds = %34, %33
  %.not19 = icmp eq ptr %2, null
  br i1 %.not19, label %37, label %36

36:                                               ; preds = %35
  store i32 %.011, ptr %2, align 4
  br label %37

37:                                               ; preds = %36, %35
  ret i32 %.0
}